target datalayout = "e-m:e-p270:32:32-p271:32:32-p272:64:64-i64:64-i128:128-f80:128-n8:16:32:64-S128"
target triple = "x86_64-pc-linux-gnu"

%struct._priv_exr_context_t = type { i8, i8, i8, i8, i8, i8, i8, i8, %struct.exr_attr_string_t, %struct.exr_attr_string_t, ptr, ptr, ptr, ptr, ptr, ptr, ptr, ptr, i32, i32, i32, i32, i32, float, ptr, ptr, ptr, i64, ptr, ptr, i64, i32, i32, i32, i32, %struct._priv_exr_part_t, ptr, ptr, %struct.exr_attribute_list, %union.pthread_mutex_t, i8, i8, [2 x i8], i32 }
%struct.exr_attr_string_t = type { i32, i32, ptr }
%struct._priv_exr_part_t = type { i32, i32, %struct.exr_attribute_list, ptr, ptr, ptr, ptr, ptr, ptr, ptr, ptr, ptr, ptr, ptr, ptr, ptr, ptr, %struct.exr_attr_box2i_t, %struct.exr_attr_box2i_t, i32, i32, i32, float, i32, i32, ptr, ptr, ptr, ptr, i64, i16, i16, i32, i64, i64 }
%struct.exr_attr_box2i_t = type { %struct.exr_attr_v2i_t, %struct.exr_attr_v2i_t }
%struct.exr_attr_v2i_t = type { i32, i32 }
%struct.exr_attribute_list = type { i32, i32, ptr, ptr }
%union.pthread_mutex_t = type { %struct.__pthread_mutex_s }
%struct.__pthread_mutex_s = type { i32, i32, i32, i32, i32, i16, i16, %struct.__pthread_internal_list }
%struct.__pthread_internal_list = type { ptr, ptr }

; Function Attrs: nounwind uwtable
define internal i32 @alloc_chunk_table(ptr noundef %0, ptr noundef %1, ptr noundef %2) #0 {
  %4 = alloca i32, align 4
  %5 = alloca ptr, align 8
  %6 = alloca ptr, align 8
  %7 = alloca ptr, align 8
  %8 = alloca ptr, align 8
  %9 = alloca i64, align 8
  %10 = alloca i64, align 8
  %11 = alloca i64, align 8
  %12 = alloca i64, align 8
  %13 = alloca i32, align 4
  %14 = alloca i64, align 8
  %15 = alloca i8, align 1
  store ptr %0, ptr %5, align 8, !tbaa !3
  store ptr %1, ptr %6, align 8, !tbaa !30
  store ptr %2, ptr %7, align 8, !tbaa !34
  call void @llvm.lifetime.start.p0(i64 8, ptr %8) #7
  store ptr null, ptr %8, align 8, !tbaa !10
  %16 = load ptr, ptr %6, align 8, !tbaa !30
  %17 = getelementptr inbounds nuw %struct._priv_exr_part_t, ptr %16, i32 0, i32 34
  %18 = ptrtoint ptr %17 to i64
  %19 = inttoptr i64 %18 to ptr
  %20 = load atomic i64, ptr %19 seq_cst, align 8
  store i64 %20, ptr %9, align 8
  %21 = load i64, ptr %9, align 8, !tbaa !33
  %22 = inttoptr i64 %21 to ptr
  store ptr %22, ptr %8, align 8, !tbaa !10
  %23 = load ptr, ptr %8, align 8, !tbaa !10
  %24 = icmp eq ptr %23, null
  br i1 %24, label %25, label %84

25:                                               ; preds = %3
  call void @llvm.lifetime.start.p0(i64 8, ptr %10) #7
  %26 = load ptr, ptr %6, align 8, !tbaa !30
  %27 = getelementptr inbounds nuw %struct._priv_exr_part_t, ptr %26, i32 0, i32 32
  %28 = load i32, ptr %27, align 4, !tbaa !36
  %29 = sext i32 %28 to i64
  %30 = mul i64 8, %29
  store i64 %30, ptr %10, align 8, !tbaa !33
  call void @llvm.lifetime.start.p0(i64 8, ptr %11) #7
  store i64 0, ptr %11, align 8, !tbaa !33
  call void @llvm.lifetime.start.p0(i64 8, ptr %12) #7
  store i64 0, ptr %12, align 8, !tbaa !33
  %31 = load ptr, ptr %5, align 8, !tbaa !3
  %32 = getelementptr inbounds nuw %struct._priv_exr_context_t, ptr %31, i32 0, i32 16
  %33 = load ptr, ptr %32, align 8, !tbaa !39
  %34 = load i64, ptr %10, align 8, !tbaa !33
  %35 = call ptr %33(i64 noundef %34)
  store ptr %35, ptr %8, align 8, !tbaa !10
  %36 = load ptr, ptr %8, align 8, !tbaa !10
  %37 = icmp eq ptr %36, null
  br i1 %37, label %38, label %44

38:                                               ; preds = %25
  %39 = load ptr, ptr %5, align 8, !tbaa !3
  %40 = getelementptr inbounds nuw %struct._priv_exr_context_t, ptr %39, i32 0, i32 12
  %41 = load ptr, ptr %40, align 8, !tbaa !31
  %42 = load ptr, ptr %5, align 8, !tbaa !3
  %43 = call i32 %41(ptr noundef %42, i32 noundef 1)
  store i32 %43, ptr %4, align 4
  store i32 1, ptr %13, align 4
  br label %81

44:                                               ; preds = %25
  %45 = load ptr, ptr %8, align 8, !tbaa !10
  %46 = load i64, ptr %10, align 8, !tbaa !33
  call void @llvm.memset.p0.i64(ptr align 8 %45, i8 0, i64 %46, i1 false)
  %47 = load ptr, ptr %8, align 8, !tbaa !10
  %48 = ptrtoint ptr %47 to i64
  store i64 %48, ptr %12, align 8, !tbaa !33
  %49 = load ptr, ptr %6, align 8, !tbaa !30
  %50 = getelementptr inbounds nuw %struct._priv_exr_part_t, ptr %49, i32 0, i32 34
  %51 = ptrtoint ptr %50 to i64
  %52 = inttoptr i64 %51 to ptr
  %53 = load i64, ptr %12, align 8, !tbaa !33
  store i64 %53, ptr %14, align 8, !tbaa !33
  %54 = load i64, ptr %11, align 8
  %55 = load i64, ptr %14, align 8
  %56 = cmpxchg ptr %52, i64 %54, i64 %55 seq_cst seq_cst, align 8
  %57 = extractvalue { i64, i1 } %56, 0
  %58 = extractvalue { i64, i1 } %56, 1
  br i1 %58, label %60, label %59

59:                                               ; preds = %44
  store i64 %57, ptr %11, align 8
  br label %60

60:                                               ; preds = %59, %44
  %61 = zext i1 %58 to i8
  store i8 %61, ptr %15, align 1, !tbaa !46
  %62 = load i8, ptr %15, align 1, !tbaa !46, !range !48, !noundef !49
  %63 = trunc i8 %62 to i1
  br i1 %63, label %80, label %64

64:                                               ; preds = %60
  %65 = load ptr, ptr %5, align 8, !tbaa !3
  %66 = getelementptr inbounds nuw %struct._priv_exr_context_t, ptr %65, i32 0, i32 17
  %67 = load ptr, ptr %66, align 8, !tbaa !41
  %68 = load ptr, ptr %8, align 8, !tbaa !10
  call void %67(ptr noundef %68)
  %69 = load i64, ptr %11, align 8, !tbaa !33
  %70 = inttoptr i64 %69 to ptr
  store ptr %70, ptr %8, align 8, !tbaa !10
  %71 = load ptr, ptr %8, align 8, !tbaa !10
  %72 = icmp eq ptr %71, null
  br i1 %72, label %73, label %79

73:                                               ; preds = %64
  %74 = load ptr, ptr %5, align 8, !tbaa !3
  %75 = getelementptr inbounds nuw %struct._priv_exr_context_t, ptr %74, i32 0, i32 12
  %76 = load ptr, ptr %75, align 8, !tbaa !31
  %77 = load ptr, ptr %5, align 8, !tbaa !3
  %78 = call i32 %76(ptr noundef %77, i32 noundef 1)
  store i32 %78, ptr %4, align 4
  store i32 1, ptr %13, align 4
  br label %81

79:                                               ; preds = %64
  br label %80

80:                                               ; preds = %79, %60
  store i32 0, ptr %13, align 4
  br label %81

81:                                               ; preds = %80, %73, %38
  call void @llvm.lifetime.end.p0(i64 8, ptr %12) #7
  call void @llvm.lifetime.end.p0(i64 8, ptr %11) #7
  call void @llvm.lifetime.end.p0(i64 8, ptr %10) #7
  %82 = load i32, ptr %13, align 4
  switch i32 %82, label %87 [
    i32 0, label %83
  ]

83:                                               ; preds = %81
  br label %84

84:                                               ; preds = %83, %3
  %85 = load ptr, ptr %8, align 8, !tbaa !10
  %86 = load ptr, ptr %7, align 8, !tbaa !34
  store ptr %85, ptr %86, align 8, !tbaa !10
  store i32 0, ptr %4, align 4
  store i32 1, ptr %13, align 4
  br label %87

87:                                               ; preds = %84, %81
  call void @llvm.lifetime.end.p0(i64 8, ptr %8) #7
  %88 = load i32, ptr %4, align 4
  ret i32 %88
}