; Function Attrs: nounwind uwtable
define internal fastcc i32 @alloc_chunk_table(ptr noundef nonnull %0, ptr noundef captures(none) %1, ptr noundef nonnull writeonly captures(none) %2) unnamed_addr #0 {
  %4 = getelementptr inbounds nuw i8, ptr %1, i64 256
  %5 = load atomic i64, ptr %4 seq_cst, align 8
  %6 = inttoptr i64 %5 to ptr
  %7 = icmp eq i64 %5, 0
  br i1 %7, label %8, label %.thread

8:                                                ; preds = %3
  %9 = getelementptr inbounds nuw i8, ptr %1, i64 244
  %10 = load i32, ptr %9, align 4, !tbaa !29
  %11 = sext i32 %10 to i64
  %12 = shl nsw i64 %11, 3
  %13 = getelementptr inbounds nuw i8, ptr %0, i64 88
  %14 = load ptr, ptr %13, align 8, !tbaa !32
  %15 = tail call ptr %14(i64 noundef %12) #8
  %16 = icmp eq ptr %15, null
  br i1 %16, label %17, label %21

17:                                               ; preds = %8
  %18 = getelementptr inbounds nuw i8, ptr %0, i64 56
  %19 = load ptr, ptr %18, align 8, !tbaa !24
  %20 = tail call i32 %19(ptr noundef nonnull %0, i32 noundef 1) #8
  br label %30

21:                                               ; preds = %8
  tail call void @llvm.memset.p0.i64(ptr nonnull align 8 %15, i8 0, i64 %12, i1 false)
  %22 = ptrtoint ptr %15 to i64
  %23 = cmpxchg ptr %4, i64 0, i64 %22 seq_cst seq_cst, align 8
  %24 = extractvalue { i64, i1 } %23, 1
  br i1 %24, label %.thread, label %25

25:                                               ; preds = %21
  %26 = extractvalue { i64, i1 } %23, 0
  %27 = inttoptr i64 %26 to ptr
  %28 = getelementptr inbounds nuw i8, ptr %0, i64 96
  %29 = load ptr, ptr %28, align 8, !tbaa !34
  tail call void %29(ptr noundef nonnull %15) #8
  br label %.thread

.thread:                                          ; preds = %25, %21, %3
  %.026 = phi ptr [ %6, %3 ], [ %27, %25 ], [ %15, %21 ]
  store ptr %.026, ptr %2, align 8, !tbaa !39
  br label %30

30:                                               ; preds = %17, %.thread
  %.1 = phi i32 [ 0, %.thread ], [ %20, %17 ]
  ret i32 %.1
}